; Function Attrs: nounwind sspstrong uwtable
define dso_local void @job_enter_cond_locked(ptr noundef %0, ptr noundef readonly captures(address_is_null) %1) local_unnamed_addr #0 {
  %3 = getelementptr i8, ptr %0, i64 16
  %.val = load ptr, ptr %3, align 8
  %.not10 = icmp eq ptr %.val, null
  br i1 %.not10, label %22, label %4

4:                                                ; preds = %2
  %5 = getelementptr inbounds nuw i8, ptr %0, i64 185
  %6 = load i8, ptr %5, align 1, !range !4, !noundef !5
  %7 = trunc nuw i8 %6 to i1
  br i1 %7, label %22, label %8

8:                                                ; preds = %4
  %9 = getelementptr inbounds nuw i8, ptr %0, i64 180
  %10 = load i8, ptr %9, align 4, !range !4, !noundef !5
  %11 = trunc nuw i8 %10 to i1
  br i1 %11, label %22, label %12

12:                                               ; preds = %8
  %.not = icmp eq ptr %1, null
  br i1 %.not, label %.thread, label %13

13:                                               ; preds = %12
  %14 = tail call zeroext i1 %1(ptr noundef nonnull %0) #15
  br i1 %14, label %15, label %22

15:                                               ; preds = %13
  %.pre = load i8, ptr %5, align 1, !range !4
  %16 = trunc nuw i8 %.pre to i1
  br i1 %16, label %17, label %.thread

17:                                               ; preds = %15
  tail call void @__assert_fail(ptr noundef nonnull @.str.15, ptr noundef nonnull @.str, i32 noundef 549, ptr noundef nonnull @__PRETTY_FUNCTION__.job_enter_cond_locked) #17
  unreachable

.thread:                                          ; preds = %12, %15
  %18 = getelementptr inbounds nuw i8, ptr %0, i64 128
  tail call void @timer_del(ptr noundef nonnull %18) #15
  store i8 1, ptr %9, align 4
  tail call void @qemu_mutex_unlock_impl(ptr noundef nonnull @job_mutex, ptr noundef nonnull @.str, i32 noundef 106) #15
  %19 = load ptr, ptr %3, align 8
  tail call void @aio_co_wake(ptr noundef %19) #15
  %20 = load atomic i64, ptr @qemu_mutex_lock_func monotonic, align 8
  %21 = inttoptr i64 %20 to ptr
  tail call void %21(ptr noundef nonnull @job_mutex, ptr noundef nonnull @.str, i32 noundef 101) #15
  br label %22

22:                                               ; preds = %13, %8, %4, %2, %.thread
  ret void
}